; ModuleID = 'source-C-CXX/9/1313.cpp'
source_filename = "source-C-CXX/9/1313.cpp"
target datalayout = "e-m:e-p270:32:32-p271:32:32-p272:64:64-i64:64-f80:128-n8:16:32:64-S128"
target triple = "x86_64-pc-linux-gnu"

%"class.std::ios_base::Init" = type { i8 }
%"class.std::basic_istream" = type { i32 (...)**, i64, %"class.std::basic_ios" }
%"class.std::basic_ios" = type { %"class.std::ios_base", %"class.std::basic_ostream"*, i8, i8, %"class.std::basic_streambuf"*, %"class.std::ctype"*, %"class.std::num_put"*, %"class.std::num_get"* }
%"class.std::ios_base" = type { i32 (...)**, i64, i64, i32, i32, i32, %"struct.std::ios_base::_Callback_list"*, %"struct.std::ios_base::_Words", [8 x %"struct.std::ios_base::_Words"], i32, %"struct.std::ios_base::_Words"*, %"class.std::locale" }
%"struct.std::ios_base::_Callback_list" = type { %"struct.std::ios_base::_Callback_list"*, void (i32, %"class.std::ios_base"*, i32)*, i32, i32 }
%"struct.std::ios_base::_Words" = type { i8*, i64 }
%"class.std::locale" = type { %"class.std::locale::_Impl"* }
%"class.std::locale::_Impl" = type { i32, %"class.std::locale::facet"**, i64, %"class.std::locale::facet"**, i8** }
%"class.std::locale::facet" = type <{ i32 (...)**, i32, [4 x i8] }>
%"class.std::basic_ostream" = type { i32 (...)**, %"class.std::basic_ios" }
%"class.std::basic_streambuf" = type { i32 (...)**, i8*, i8*, i8*, i8*, i8*, i8*, %"class.std::locale" }
%"class.std::ctype" = type <{ %"class.std::locale::facet.base", [4 x i8], %struct.__locale_struct*, i8, [7 x i8], i32*, i32*, i16*, i8, [256 x i8], [256 x i8], i8, [6 x i8] }>
%"class.std::locale::facet.base" = type <{ i32 (...)**, i32 }>
%struct.__locale_struct = type { [13 x %struct.__locale_data*], i16*, i32*, i32*, [13 x i8*] }
%struct.__locale_data = type opaque
%"class.std::num_put" = type { %"class.std::locale::facet.base", [4 x i8] }
%"class.std::num_get" = type { %"class.std::locale::facet.base", [4 x i8] }

@_ZStL8__ioinit = internal global %"class.std::ios_base::Init" zeroinitializer, align 1
@__dso_handle = external hidden global i8
@k = dso_local global i32 0, align 4
@n = dso_local local_unnamed_addr global [25 x i32] zeroinitializer, align 16
@h = dso_local global [25 x i32] zeroinitializer, align 16
@_ZSt3cin = external global %"class.std::basic_istream", align 8
@_ZSt4cout = external global %"class.std::basic_ostream", align 8
@llvm.global_ctors = appending global [1 x { i32, void ()*, i8* }] [{ i32, void ()*, i8* } { i32 65535, void ()* @_GLOBAL__sub_I_1313.cpp, i8* null }]

declare void @_ZNSt8ios_base4InitC1Ev(%"class.std::ios_base::Init"* nonnull align 1 dereferenceable(1)) unnamed_addr #0

; Function Attrs: nounwind
declare void @_ZNSt8ios_base4InitD1Ev(%"class.std::ios_base::Init"* nonnull align 1 dereferenceable(1)) unnamed_addr #1

; Function Attrs: nofree nounwind
declare i32 @__cxa_atexit(void (i8*)*, i8*, i8*) local_unnamed_addr #2

; Function Attrs: mustprogress norecurse sspstrong uwtable
define dso_local i32 @main() local_unnamed_addr #3 {
  %1 = tail call nonnull align 8 dereferenceable(16) %"class.std::basic_istream"* @_ZNSirsERi(%"class.std::basic_istream"* nonnull align 8 dereferenceable(16) @_ZSt3cin, i32* nonnull align 4 dereferenceable(4) @k)
  %2 = load i32, i32* @k, align 4, !tbaa !5
  %3 = icmp sgt i32 %2, 0
  br i1 %3, label %8, label %143

4:                                                ; preds = %8
  %5 = icmp sgt i32 %13, 0
  br i1 %5, label %6, label %143

6:                                                ; preds = %4
  %7 = zext i32 %13 to i64
  br label %16

8:                                                ; preds = %0, %8
  %9 = phi i64 [ %12, %8 ], [ 0, %0 ]
  %10 = getelementptr inbounds [25 x i32], [25 x i32]* @h, i64 0, i64 %9
  %11 = tail call nonnull align 8 dereferenceable(16) %"class.std::basic_istream"* @_ZNSirsERi(%"class.std::basic_istream"* nonnull align 8 dereferenceable(16) @_ZSt3cin, i32* nonnull align 4 dereferenceable(4) %10)
  %12 = add nuw nsw i64 %9, 1
  %13 = load i32, i32* @k, align 4, !tbaa !5
  %14 = sext i32 %13 to i64
  %15 = icmp slt i64 %12, %14
  br i1 %15, label %8, label %4, !llvm.loop !9

16:                                               ; preds = %6, %128
  %17 = phi i64 [ 0, %6 ], [ %132, %128 ]
  %18 = icmp eq i64 %17, 0
  br i1 %18, label %128, label %19

19:                                               ; preds = %16
  %20 = getelementptr inbounds [25 x i32], [25 x i32]* @h, i64 0, i64 %17
  %21 = load i32, i32* %20, align 4, !tbaa !5
  %22 = and i64 %17, 1
  %23 = icmp eq i64 %17, 1
  br i1 %23, label %114, label %24

24:                                               ; preds = %19
  %25 = and i64 %17, 9223372036854775806
  br label %96

26:                                               ; preds = %128
  br i1 %5, label %27, label %143

27:                                               ; preds = %26
  %28 = zext i32 %13 to i64
  %29 = icmp ult i32 %13, 8
  br i1 %29, label %93, label %30

30:                                               ; preds = %27
  %31 = and i64 %7, 4294967288
  %32 = add nsw i64 %31, -8
  %33 = lshr exact i64 %32, 3
  %34 = add nuw nsw i64 %33, 1
  %35 = and i64 %34, 1
  %36 = icmp eq i64 %32, 0
  br i1 %36, label %68, label %37

37:                                               ; preds = %30
  %38 = and i64 %34, 4611686018427387902
  br label %39

39:                                               ; preds = %39, %37
  %40 = phi i64 [ 0, %37 ], [ %65, %39 ]
  %41 = phi <4 x i32> [ zeroinitializer, %37 ], [ %63, %39 ]
  %42 = phi <4 x i32> [ zeroinitializer, %37 ], [ %64, %39 ]
  %43 = phi i64 [ %38, %37 ], [ %66, %39 ]
  %44 = getelementptr inbounds [25 x i32], [25 x i32]* @n, i64 0, i64 %40
  %45 = bitcast i32* %44 to <4 x i32>*
  %46 = load <4 x i32>, <4 x i32>* %45, align 16, !tbaa !5
  %47 = getelementptr inbounds i32, i32* %44, i64 4
  %48 = bitcast i32* %47 to <4 x i32>*
  %49 = load <4 x i32>, <4 x i32>* %48, align 16, !tbaa !5
  %50 = icmp sgt <4 x i32> %46, %41
  %51 = icmp sgt <4 x i32> %49, %42
  %52 = select <4 x i1> %50, <4 x i32> %46, <4 x i32> %41
  %53 = select <4 x i1> %51, <4 x i32> %49, <4 x i32> %42
  %54 = or i64 %40, 8
  %55 = getelementptr inbounds [25 x i32], [25 x i32]* @n, i64 0, i64 %54
  %56 = bitcast i32* %55 to <4 x i32>*
  %57 = load <4 x i32>, <4 x i32>* %56, align 16, !tbaa !5
  %58 = getelementptr inbounds i32, i32* %55, i64 4
  %59 = bitcast i32* %58 to <4 x i32>*
  %60 = load <4 x i32>, <4 x i32>* %59, align 16, !tbaa !5
  %61 = icmp sgt <4 x i32> %57, %52
  %62 = icmp sgt <4 x i32> %60, %53
  %63 = select <4 x i1> %61, <4 x i32> %57, <4 x i32> %52
  %64 = select <4 x i1> %62, <4 x i32> %60, <4 x i32> %53
  %65 = add nuw i64 %40, 16
  %66 = add i64 %43, -2
  %67 = icmp eq i64 %66, 0
  br i1 %67, label %68, label %39, !llvm.loop !11

68:                                               ; preds = %39, %30
  %69 = phi <4 x i32> [ undef, %30 ], [ %63, %39 ]
  %70 = phi <4 x i32> [ undef, %30 ], [ %64, %39 ]
  %71 = phi i64 [ 0, %30 ], [ %65, %39 ]
  %72 = phi <4 x i32> [ zeroinitializer, %30 ], [ %63, %39 ]
  %73 = phi <4 x i32> [ zeroinitializer, %30 ], [ %64, %39 ]
  %74 = icmp eq i64 %35, 0
  br i1 %74, label %86, label %75

75:                                               ; preds = %68
  %76 = getelementptr inbounds [25 x i32], [25 x i32]* @n, i64 0, i64 %71
  %77 = bitcast i32* %76 to <4 x i32>*
  %78 = load <4 x i32>, <4 x i32>* %77, align 16, !tbaa !5
  %79 = getelementptr inbounds i32, i32* %76, i64 4
  %80 = bitcast i32* %79 to <4 x i32>*
  %81 = load <4 x i32>, <4 x i32>* %80, align 16, !tbaa !5
  %82 = icmp sgt <4 x i32> %81, %73
  %83 = select <4 x i1> %82, <4 x i32> %81, <4 x i32> %73
  %84 = icmp sgt <4 x i32> %78, %72
  %85 = select <4 x i1> %84, <4 x i32> %78, <4 x i32> %72
  br label %86

86:                                               ; preds = %68, %75
  %87 = phi <4 x i32> [ %69, %68 ], [ %85, %75 ]
  %88 = phi <4 x i32> [ %70, %68 ], [ %83, %75 ]
  %89 = icmp sgt <4 x i32> %87, %88
  %90 = select <4 x i1> %89, <4 x i32> %87, <4 x i32> %88
  %91 = call i32 @llvm.vector.reduce.smax.v4i32(<4 x i32> %90)
  %92 = icmp eq i64 %31, %7
  br i1 %92, label %143, label %93

93:                                               ; preds = %27, %86
  %94 = phi i64 [ 0, %27 ], [ %31, %86 ]
  %95 = phi i32 [ 0, %27 ], [ %91, %86 ]
  br label %134

96:                                               ; preds = %180, %24
  %97 = phi i64 [ 0, %24 ], [ %182, %180 ]
  %98 = phi i32 [ 0, %24 ], [ %181, %180 ]
  %99 = phi i64 [ %25, %24 ], [ %183, %180 ]
  %100 = getelementptr inbounds [25 x i32], [25 x i32]* @h, i64 0, i64 %97
  %101 = load i32, i32* %100, align 8, !tbaa !5
  %102 = icmp slt i32 %101, %21
  br i1 %102, label %108, label %103

103:                                              ; preds = %96
  %104 = getelementptr inbounds [25 x i32], [25 x i32]* @n, i64 0, i64 %97
  %105 = load i32, i32* %104, align 8, !tbaa !5
  %106 = icmp sgt i32 %105, %98
  %107 = select i1 %106, i32 %105, i32 %98
  br label %108

108:                                              ; preds = %103, %96
  %109 = phi i32 [ %98, %96 ], [ %107, %103 ]
  %110 = or i64 %97, 1
  %111 = getelementptr inbounds [25 x i32], [25 x i32]* @h, i64 0, i64 %110
  %112 = load i32, i32* %111, align 4, !tbaa !5
  %113 = icmp slt i32 %112, %21
  br i1 %113, label %180, label %175

114:                                              ; preds = %180, %19
  %115 = phi i32 [ undef, %19 ], [ %181, %180 ]
  %116 = phi i64 [ 0, %19 ], [ %182, %180 ]
  %117 = phi i32 [ 0, %19 ], [ %181, %180 ]
  %118 = icmp eq i64 %22, 0
  br i1 %118, label %128, label %119

119:                                              ; preds = %114
  %120 = getelementptr inbounds [25 x i32], [25 x i32]* @h, i64 0, i64 %116
  %121 = load i32, i32* %120, align 4, !tbaa !5
  %122 = icmp slt i32 %121, %21
  br i1 %122, label %128, label %123

123:                                              ; preds = %119
  %124 = getelementptr inbounds [25 x i32], [25 x i32]* @n, i64 0, i64 %116
  %125 = load i32, i32* %124, align 4, !tbaa !5
  %126 = icmp sgt i32 %125, %117
  %127 = select i1 %126, i32 %125, i32 %117
  br label %128

128:                                              ; preds = %114, %119, %123, %16
  %129 = phi i32 [ 0, %16 ], [ %115, %114 ], [ %117, %119 ], [ %127, %123 ]
  %130 = add nsw i32 %129, 1
  %131 = getelementptr inbounds [25 x i32], [25 x i32]* @n, i64 0, i64 %17
  store i32 %130, i32* %131, align 4, !tbaa !5
  %132 = add nuw nsw i64 %17, 1
  %133 = icmp eq i64 %132, %7
  br i1 %133, label %26, label %16, !llvm.loop !13

134:                                              ; preds = %93, %134
  %135 = phi i64 [ %141, %134 ], [ %94, %93 ]
  %136 = phi i32 [ %140, %134 ], [ %95, %93 ]
  %137 = getelementptr inbounds [25 x i32], [25 x i32]* @n, i64 0, i64 %135
  %138 = load i32, i32* %137, align 4, !tbaa !5
  %139 = icmp sgt i32 %138, %136
  %140 = select i1 %139, i32 %138, i32 %136
  %141 = add nuw nsw i64 %135, 1
  %142 = icmp eq i64 %141, %28
  br i1 %142, label %143, label %134, !llvm.loop !14

143:                                              ; preds = %134, %86, %4, %0, %26
  %144 = phi i32 [ 0, %26 ], [ 0, %0 ], [ 0, %4 ], [ %91, %86 ], [ %140, %134 ]
  %145 = tail call nonnull align 8 dereferenceable(8) %"class.std::basic_ostream"* @_ZNSolsEi(%"class.std::basic_ostream"* nonnull align 8 dereferenceable(8) @_ZSt4cout, i32 %144)
  %146 = bitcast %"class.std::basic_ostream"* %145 to i8**
  %147 = load i8*, i8** %146, align 8, !tbaa !16
  %148 = getelementptr i8, i8* %147, i64 -24
  %149 = bitcast i8* %148 to i64*
  %150 = load i64, i64* %149, align 8
  %151 = bitcast %"class.std::basic_ostream"* %145 to i8*
  %152 = add nsw i64 %150, 240
  %153 = getelementptr inbounds i8, i8* %151, i64 %152
  %154 = bitcast i8* %153 to %"class.std::ctype"**
  %155 = load %"class.std::ctype"*, %"class.std::ctype"** %154, align 8, !tbaa !18
  %156 = icmp eq %"class.std::ctype"* %155, null
  br i1 %156, label %157, label %158

157:                                              ; preds = %143
  tail call void @_ZSt16__throw_bad_castv() #7
  unreachable

158:                                              ; preds = %143
  %159 = getelementptr inbounds %"class.std::ctype", %"class.std::ctype"* %155, i64 0, i32 8
  %160 = load i8, i8* %159, align 8, !tbaa !22
  %161 = icmp eq i8 %160, 0
  br i1 %161, label %165, label %162

162:                                              ; preds = %158
  %163 = getelementptr inbounds %"class.std::ctype", %"class.std::ctype"* %155, i64 0, i32 9, i64 10
  %164 = load i8, i8* %163, align 1, !tbaa !24
  br label %171

165:                                              ; preds = %158
  tail call void @_ZNKSt5ctypeIcE13_M_widen_initEv(%"class.std::ctype"* nonnull align 8 dereferenceable(570) %155)
  %166 = bitcast %"class.std::ctype"* %155 to i8 (%"class.std::ctype"*, i8)***
  %167 = load i8 (%"class.std::ctype"*, i8)**, i8 (%"class.std::ctype"*, i8)*** %166, align 8, !tbaa !16
  %168 = getelementptr inbounds i8 (%"class.std::ctype"*, i8)*, i8 (%"class.std::ctype"*, i8)** %167, i64 6
  %169 = load i8 (%"class.std::ctype"*, i8)*, i8 (%"class.std::ctype"*, i8)** %168, align 8
  %170 = tail call signext i8 %169(%"class.std::ctype"* nonnull align 8 dereferenceable(570) %155, i8 signext 10)
  br label %171

171:                                              ; preds = %162, %165
  %172 = phi i8 [ %164, %162 ], [ %170, %165 ]
  %173 = tail call nonnull align 8 dereferenceable(8) %"class.std::basic_ostream"* @_ZNSo3putEc(%"class.std::basic_ostream"* nonnull align 8 dereferenceable(8) %145, i8 signext %172)
  %174 = tail call nonnull align 8 dereferenceable(8) %"class.std::basic_ostream"* @_ZNSo5flushEv(%"class.std::basic_ostream"* nonnull align 8 dereferenceable(8) %173)
  ret i32 0

175:                                              ; preds = %108
  %176 = getelementptr inbounds [25 x i32], [25 x i32]* @n, i64 0, i64 %110
  %177 = load i32, i32* %176, align 4, !tbaa !5
  %178 = icmp sgt i32 %177, %109
  %179 = select i1 %178, i32 %177, i32 %109
  br label %180

180:                                              ; preds = %175, %108
  %181 = phi i32 [ %109, %108 ], [ %179, %175 ]
  %182 = add nuw nsw i64 %97, 2
  %183 = add i64 %99, -2
  %184 = icmp eq i64 %183, 0
  br i1 %184, label %114, label %96, !llvm.loop !25
}

declare nonnull align 8 dereferenceable(16) %"class.std::basic_istream"* @_ZNSirsERi(%"class.std::basic_istream"* nonnull align 8 dereferenceable(16), i32* nonnull align 4 dereferenceable(4)) local_unnamed_addr #0

declare nonnull align 8 dereferenceable(8) %"class.std::basic_ostream"* @_ZNSolsEi(%"class.std::basic_ostream"* nonnull align 8 dereferenceable(8), i32) local_unnamed_addr #0

declare nonnull align 8 dereferenceable(8) %"class.std::basic_ostream"* @_ZNSo3putEc(%"class.std::basic_ostream"* nonnull align 8 dereferenceable(8), i8 signext) local_unnamed_addr #0

declare nonnull align 8 dereferenceable(8) %"class.std::basic_ostream"* @_ZNSo5flushEv(%"class.std::basic_ostream"* nonnull align 8 dereferenceable(8)) local_unnamed_addr #0

; Function Attrs: noreturn
declare void @_ZSt16__throw_bad_castv() local_unnamed_addr #4

declare void @_ZNKSt5ctypeIcE13_M_widen_initEv(%"class.std::ctype"* nonnull align 8 dereferenceable(570)) local_unnamed_addr #0

; Function Attrs: sspstrong uwtable
define internal void @_GLOBAL__sub_I_1313.cpp() #5 section ".text.startup" {
  tail call void @_ZNSt8ios_base4InitC1Ev(%"class.std::ios_base::Init"* nonnull align 1 dereferenceable(1) @_ZStL8__ioinit)
  %1 = tail call i32 @__cxa_atexit(void (i8*)* bitcast (void (%"class.std::ios_base::Init"*)* @_ZNSt8ios_base4InitD1Ev to void (i8*)*), i8* getelementptr inbounds (%"class.std::ios_base::Init", %"class.std::ios_base::Init"* @_ZStL8__ioinit, i64 0, i32 0), i8* nonnull @__dso_handle) #8
  ret void
}

; Function Attrs: nofree nosync nounwind readnone willreturn
declare i32 @llvm.vector.reduce.smax.v4i32(<4 x i32>) #6


!llvm.module.flags = !{!0, !1, !2, !3}
!llvm.ident = !{!4}

!0 = !{i32 1, !"wchar_size", i32 4}
!1 = !{i32 7, !"PIC Level", i32 2}
!2 = !{i32 7, !"PIE Level", i32 2}
!3 = !{i32 7, !"uwtable", i32 1}
!4 = !{!"clang version 13.0.0"}
!5 = !{!6, !6, i64 0}
!6 = !{!"int", !7, i64 0}
!7 = !{!"omnipotent char", !8, i64 0}
!8 = !{!"Simple C++ TBAA"}
!9 = distinct !{!9, !10}
!10 = !{!"llvm.loop.mustprogress"}
!11 = distinct !{!11, !10, !12}
!12 = !{!"llvm.loop.isvectorized", i32 1}
!13 = distinct !{!13, !10}
!14 = distinct !{!14, !10, !15, !12}
!15 = !{!"llvm.loop.unroll.runtime.disable"}
!16 = !{!17, !17, i64 0}
!17 = !{!"vtable pointer", !8, i64 0}
!18 = !{!19, !20, i64 240}
!19 = !{!"_ZTSSt9basic_iosIcSt11char_traitsIcEE", !20, i64 216, !7, i64 224, !21, i64 225, !20, i64 232, !20, i64 240, !20, i64 248, !20, i64 256}
!20 = !{!"any pointer", !7, i64 0}
!21 = !{!"bool", !7, i64 0}
!22 = !{!23, !7, i64 56}
!23 = !{!"_ZTSSt5ctypeIcE", !20, i64 16, !21, i64 24, !20, i64 32, !20, i64 40, !20, i64 48, !7, i64 56, !7, i64 57, !7, i64 313, !7, i64 569}
!24 = !{!7, !7, i64 0}
!25 = distinct !{!25, !10}
